Certificate:
    Data:
        Version: 3 (0x2)
        Serial Number: 1 (0x1)
    Signature Algorithm: sha256WithRSAEncryption
        Issuer: C=US, ST=New York, L=New York, O=ACME CA, OU=Coyote, CN=ourca.domain.local
        Validity
            Not Before: Jun 30 16:46:09 2016 GMT
            Not After : Jun 25 16:46:09 2036 GMT
        Subject: C=US, ST=New York, O=ACME, OU=Coyote, CN=cert1.domain.local
        Subject Public Key Info:
            Public Key Algorithm: rsaEncryption
                Public-Key: (2048 bit)
                Modulus:
                    00:d6:0f:bd:26:ef:14:4d:09:f6:db:8b:01:f5:4e:
                    6c:03:b1:35:20:16:b8:1b:7c:e6:b6:8d:97:1b:b0:
                    4f:8a:b6:cb:54:7e:7a:ff:fd:af:02:db:bf:9d:cf:
                    9a:4c:0d:87:93:8b:cc:61:f3:23:a9:6f:8e:d4:82:
                    2c:93:b6:e2:fa:37:ed:8a:d3:23:8f:6d:b5:78:4a:
                    38:ba:93:f9:4a:1c:40:06:33:d7:c0:98:20:d4:16:
                    ac:a4:a5:6b:41:20:4c:3a:55:7e:c7:50:e7:95:07:
                    4e:86:15:86:7a:0f:6c:57:d2:07:1c:97:24:51:5b:
                    4e:f5:52:3a:f8:4f:95:6b:6c:83:1f:34:4e:ee:b0:
                    ae:fe:46:90:38:f1:4d:85:72:8b:46:bc:d1:62:37:
                    65:5a:de:bb:16:51:1e:f5:cb:a0:ef:d6:7b:11:6f:
                    3b:0c:49:17:bc:4d:8c:f5:d9:f0:35:6b:f7:b6:4d:
                    50:eb:47:81:e3:06:f2:bd:ec:67:4f:ab:2b:03:aa:
                    e2:1e:42:22:a9:c9:59:dc:0d:19:fb:c5:02:1d:d7:
                    58:e4:04:53:0a:1d:79:bb:c1:33:f1:cd:b7:10:2e:
                    b4:6e:9b:dc:60:66:05:50:9f:20:66:a1:71:00:51:
                    54:cf:0a:70:f4:7c:45:c6:f0:a7:1c:11:2f:3e:a3:
                    1f:bf
                Exponent: 65537 (0x10001)
        X509v3 extensions:
            X509v3 Basic Constraints: 
                CA:FALSE
            Netscape Comment: 
                OpenSSL Generated Certificate
            X509v3 Subject Key Identifier: 
                2D:FB:27:C7:B4:32:FF:F7:87:DB:2D:A7:76:AE:F0:96:7E:DA:DC:17
            X509v3 Authority Key Identifier: 
                keyid:4F:2A:15:49:E6:CC:05:2F:2B:F4:0E:CC:BA:2E:4C:DF:13:90:F0:78

    Signature Algorithm: sha256WithRSAEncryption
         3f:46:1c:3b:58:b4:99:f3:75:00:47:d2:fe:ba:ba:9a:04:46:
         62:b6:2d:a0:0f:8f:c0:95:2a:58:8b:61:f5:14:90:30:26:37:
         94:a1:a6:29:20:c9:b5:08:d7:f9:15:cb:9d:9c:19:ed:2f:a4:
         e6:91:48:85:1a:f7:ab:17:5e:79:23:69:b8:3c:0c:48:ae:c8:
         ba:90:d0:05:fb:33:7e:86:fd:12:f8:2d:0f:ff:16:15:9a:dc:
         76:48:7d:65:5b:4e:93:14:e8:be:37:d1:13:f7:a7:b1:cd:ad:
         ae:4f:e1:72:b9:53:2d:cd:e6:42:76:44:93:21:28:58:c0:44:
         ab:3c:da:5b:e5:55:ab:04:86:4d:9c:4c:33:f4:4e:13:98:e9:
         0f:d1:a3:70:2b:1d:11:20:47:26:f6:d8:45:7f:88:ad:f2:c1:
         81:0f:be:cd:6c:79:80:94:30:eb:8d:cc:f3:7d:a1:3e:6c:6f:
         fa:8f:f3:1f:2e:76:97:3f:8a:1b:67:3b:e0:f9:b1:3c:6b:dc:
         64:1b:00:73:e9:89:81:f6:7f:51:f3:51:c8:b9:96:5f:fd:55:
         f8:77:6f:88:bc:65:b3:e2:30:a4:00:7a:79:68:e0:36:8b:a9:
         1b:06:9b:20:fe:fe:98:aa:56:58:c8:08:a4:7b:12:59:ff:3d:
         bd:5e:13:3b:c6:c7:8a:00:5b:cb:27:18:02:ee:cb:38:c2:b7:
         a9:51:04:ef:31:ca:49:09:48:14:13:eb:91:e2:26:8c:88:5f:
         1c:78:e1:0d:90:29:d7:c1:fc:c8:89:fd:4d:53:0b:99:58:c2:
         1a:24:3d:c0:a2:4c:a3:d9:c7:95:c5:bc:72:fa:02:f1:ab:dd:
         aa:2b:9e:a0:bb:1a:68:2d:09:8c:a2:99:0d:26:ec:9e:30:19:
         01:5a:41:45:63:b3:c5:db:24:32:4c:fe:7f:f3:ce:e9:4d:00:
         64:cf:bb:15:34:2d:31:6e:4f:c0:96:40:9b:32:35:65:92:01:
         29:7e:74:02:50:fd:3b:3b:3a:a3:9f:6a:c0:a5:be:3f:c3:07:
         d6:8c:2a:c6:f4:0f:32:bd:3b:fc:45:90:d2:46:ee:6f:c3:2f:
         26:8c:97:0c:e8:da:9a:97:03:0b:86:17:45:a6:62:69:4e:8d:
         cf:f8:bf:ea:2f:dc:ff:95:14:15:bd:92:2d:8a:08:cf:ce:8a:
         b0:f6:34:0a:a2:0e:49:31:44:e1:47:fb:37:52:53:59:93:25:
         40:cc:ac:67:2d:a2:b6:9b:75:fd:13:a5:a7:93:4f:72:05:75:
         cd:b1:37:f6:3b:69:3b:24:a1:1f:23:f0:cd:bb:ae:18:b3:aa:
         eb:9f:d7:97:06:ba:fd:44
-----BEGIN CERTIFICATE-----
MIIExjCCAq6gAwIBAgIBATANBgkqhkiG9w0BAQsFADBzMQswCQYDVQQGEwJVUzER
MA8GA1UECAwITmV3IFlvcmsxETAPBgNVBAcMCE5ldyBZb3JrMRAwDgYDVQQKDAdB
Q01FIENBMQ8wDQYDVQQLDAZDb3lvdGUxGzAZBgNVBAMMEm91cmNhLmRvbWFpbi5s
b2NhbDAeFw0xNjA2MzAxNjQ2MDlaFw0zNjA2MjUxNjQ2MDlaMF0xCzAJBgNVBAYT
AlVTMREwDwYDVQQIDAhOZXcgWW9yazENMAsGA1UECgwEQUNNRTEPMA0GA1UECwwG
Q295b3RlMRswGQYDVQQDDBJjZXJ0MS5kb21haW4ubG9jYWwwggEiMA0GCSqGSIb3
DQEBAQUAA4IBDwAwggEKAoIBAQDWD70m7xRNCfbbiwH1TmwDsTUgFrgbfOa2jZcb
sE+KtstUfnr//a8C27+dz5pMDYeTi8xh8yOpb47UgiyTtuL6N+2K0yOPbbV4Sji6
k/lKHEAGM9fAmCDUFqykpWtBIEw6VX7HUOeVB06GFYZ6D2xX0gcclyRRW071Ujr4
T5VrbIMfNE7usK7+RpA48U2FcotGvNFiN2Va3rsWUR71y6Dv1nsRbzsMSRe8TYz1
2fA1a/e2TVDrR4HjBvK97GdPqysDquIeQiKpyVncDRn7xQId11jkBFMKHXm7wTPx
zbcQLrRum9xgZgVQnyBmoXEAUVTPCnD0fEXG8KccES8+ox+/AgMBAAGjezB5MAkG
A1UdEwQCMAAwLAYJYIZIAYb4QgENBB8WHU9wZW5TU0wgR2VuZXJhdGVkIENlcnRp
ZmljYXRlMB0GA1UdDgQWBBQt+yfHtDL/94fbLad2rvCWftrcFzAfBgNVHSMEGDAW
gBRPKhVJ5swFLyv0Dsy6LkzfE5DweDANBgkqhkiG9w0BAQsFAAOCAgEAP0YcO1i0
mfN1AEfS/rq6mgRGYrYtoA+PwJUqWIth9RSQMCY3lKGmKSDJtQjX+RXLnZwZ7S+k
5pFIhRr3qxdeeSNpuDwMSK7IupDQBfszfob9EvgtD/8WFZrcdkh9ZVtOkxTovjfR
E/ensc2trk/hcrlTLc3mQnZEkyEoWMBEqzzaW+VVqwSGTZxMM/ROE5jpD9GjcCsd
ESBHJvbYRX+IrfLBgQ++zWx5gJQw643M832hPmxv+o/zHy52lz+KG2c74PmxPGvc
ZBsAc+mJgfZ/UfNRyLmWX/1V+HdviLxls+IwpAB6eWjgNoupGwabIP7+mKpWWMgI
pHsSWf89vV4TO8bHigBbyycYAu7LOMK3qVEE7zHKSQlIFBPrkeImjIhfHHjhDZAp
18H8yIn9TVMLmVjCGiQ9wKJMo9nHlcW8cvoC8avdqiueoLsaaC0JjKKZDSbsnjAZ
AVpBRWOzxdskMkz+f/PO6U0AZM+7FTQtMW5PwJZAmzI1ZZIBKX50AlD9Ozs6o59q
wKW+P8MH1owqxvQPMr07/EWQ0kbub8MvJoyXDOjampcDC4YXRaZiaU6Nz/i/6i/c
/5UUFb2SLYoIz86KsPY0CqIOSTFE4Uf7N1JTWZMlQMysZy2itpt1/ROlp5NPcgV1
zbE39jtpOyShHyPwzbuuGLOq65/Xlwa6/UQ=
-----END CERTIFICATE-----
